Certificate:
    Data:
        Version: 3 (0x2)
        Serial Number:
            e9:60:c3:8a:00:b2:2d:d7:cc:71:f5:ca:17:b1:25:a5
        Signature Algorithm: sha256WithRSAEncryption
        Issuer: CN=CA
        Validity
            Not Before: Dec  6 15:49:09 2025 GMT
            Not After : Mar 10 15:49:09 2028 GMT
        Subject: CN=server
        Subject Public Key Info:
            Public Key Algorithm: rsaEncryption
                Public-Key: (2048 bit)
                Modulus:
                    00:fa:f9:52:ff:04:e6:95:1a:fe:2d:d9:d4:ab:f7:
                    20:ce:81:5b:09:af:34:09:8b:07:b8:4e:5e:2f:9d:
                    c2:3a:45:ad:b2:a5:8d:ff:59:04:6e:7d:d9:00:94:
                    ad:b0:c5:77:fc:6f:43:50:56:91:26:bb:60:f8:59:
                    4f:db:9a:22:d5:f3:f9:d3:2e:7c:29:81:f3:86:07:
                    0e:b9:7c:32:db:8b:5f:79:5d:4f:4a:50:4a:5b:3f:
                    b7:f0:fc:32:75:4e:dd:74:41:29:1c:11:0a:dc:47:
                    3c:1e:ef:59:6d:74:62:45:60:1e:4a:67:8c:17:0a:
                    11:f9:65:dd:ff:71:12:11:ed:27:5d:9f:41:8b:ba:
                    7c:3e:a7:0a:d8:7a:c2:87:de:ec:28:2c:9a:81:e4:
                    9a:6c:e2:2f:65:24:44:98:a6:f1:90:0f:91:eb:cc:
                    b5:41:0c:2d:f5:41:46:56:f5:23:97:ae:85:ba:fd:
                    3d:e0:8c:ad:e9:96:84:cd:15:e1:1f:ad:c2:28:3e:
                    e0:da:6e:e5:d3:e6:50:0b:b0:b7:7a:15:d3:f1:c9:
                    68:d5:22:7a:19:28:e8:6f:08:20:e9:39:23:1d:9e:
                    03:c6:c9:f7:fe:63:1e:92:2f:31:34:de:27:9b:f0:
                    c6:52:df:06:9a:6b:ce:71:6a:45:0b:be:0a:6b:bf:
                    d7:7d
                Exponent: 65537 (0x10001)
        X509v3 extensions:
            X509v3 Basic Constraints: 
                CA:FALSE
            X509v3 Subject Key Identifier: 
                86:EE:6B:A5:0C:3B:82:14:FE:B6:64:22:27:62:15:69:69:01:3C:DA
            X509v3 Authority Key Identifier: 
                keyid:62:AF:2F:F4:45:A5:1D:8B:C8:CD:2B:68:8F:27:4C:4E:10:5F:E6:8B
                DirName:/CN=CA
                serial:15:F7:DB:0D:36:84:D1:B5:D4:05:7A:D6:A9:44:65:A8:9B:CF:8A:FA
            X509v3 Extended Key Usage: 
                TLS Web Server Authentication
            X509v3 Key Usage: 
                Digital Signature, Key Encipherment
            X509v3 Subject Alternative Name: 
                DNS:server
    Signature Algorithm: sha256WithRSAEncryption
    Signature Value:
        a8:41:7b:6e:fd:88:61:a2:0e:37:fa:ea:0c:e4:bd:b6:c0:90:
        17:f6:de:fc:a4:db:80:35:3c:c2:0b:23:af:2d:8d:0d:53:94:
        71:70:87:6a:1b:7a:ad:58:a5:33:8c:93:60:7a:c9:54:97:fb:
        15:56:d7:8c:08:cd:d0:10:7a:e7:d7:68:17:76:6a:bc:c2:49:
        21:5f:ad:ef:4b:0f:d7:9d:86:ff:ca:78:59:2f:ab:84:8b:32:
        90:b1:97:cb:5e:ef:3e:e7:6b:19:d1:4d:fc:06:ca:a4:68:cd:
        55:9c:15:ba:e7:b4:a2:30:a3:2b:38:14:2b:fa:4d:6b:4a:85:
        23:74:c9:98:6d:9a:93:c9:10:1c:2d:3d:6d:b9:fa:50:db:18:
        9d:5b:8f:97:71:2f:59:ce:cf:af:af:1c:26:f7:e6:5d:3c:3b:
        49:23:aa:c5:07:ca:2f:9e:94:3d:a3:37:74:d9:47:1b:08:2e:
        1b:99:e5:58:7f:e1:3d:7c:29:93:9d:7d:98:52:21:12:f2:87:
        62:e3:a9:70:32:2c:d9:b1:f5:e7:52:d2:10:e0:e8:d5:e9:9a:
        8d:fe:bc:33:1f:cd:68:4d:3c:79:1a:d6:81:fb:ac:c8:09:d4:
        ed:cc:09:86:56:c0:92:3f:6a:38:2f:7b:46:17:9b:fc:bc:91:
        c8:50:74:b9
-----BEGIN CERTIFICATE-----
MIIDVjCCAj6gAwIBAgIRAOlgw4oAsi3XzHH1yhexJaUwDQYJKoZIhvcNAQELBQAw
DTELMAkGA1UEAwwCQ0EwHhcNMjUxMjA2MTU0OTA5WhcNMjgwMzEwMTU0OTA5WjAR
MQ8wDQYDVQQDDAZzZXJ2ZXIwggEiMA0GCSqGSIb3DQEBAQUAA4IBDwAwggEKAoIB
AQD6+VL/BOaVGv4t2dSr9yDOgVsJrzQJiwe4Tl4vncI6Ra2ypY3/WQRufdkAlK2w
xXf8b0NQVpEmu2D4WU/bmiLV8/nTLnwpgfOGBw65fDLbi195XU9KUEpbP7fw/DJ1
Tt10QSkcEQrcRzwe71ltdGJFYB5KZ4wXChH5Zd3/cRIR7Sddn0GLunw+pwrYesKH
3uwoLJqB5Jps4i9lJESYpvGQD5HrzLVBDC31QUZW9SOXroW6/T3gjK3ploTNFeEf
rcIoPuDabuXT5lALsLd6FdPxyWjVInoZKOhvCCDpOSMdngPGyff+Yx6SLzE03ieb
8MZS3waaa85xakULvgprv9d9AgMBAAGjgawwgakwCQYDVR0TBAIwADAdBgNVHQ4E
FgQUhu5rpQw7ghT+tmQiJ2IVaWkBPNowSAYDVR0jBEEwP4AUYq8v9EWlHYvIzSto
jydMThBf5ouhEaQPMA0xCzAJBgNVBAMMAkNBghQV99sNNoTRtdQFetapRGWom8+K
+jATBgNVHSUEDDAKBggrBgEFBQcDATALBgNVHQ8EBAMCBaAwEQYDVR0RBAowCIIG
c2VydmVyMA0GCSqGSIb3DQEBCwUAA4IBAQCoQXtu/Yhhog43+uoM5L22wJAX9t78
pNuANTzCCyOvLY0NU5RxcIdqG3qtWKUzjJNgeslUl/sVVteMCM3QEHrn12gXdmq8
wkkhX63vSw/XnYb/ynhZL6uEizKQsZfLXu8+52sZ0U38BsqkaM1VnBW657SiMKMr
OBQr+k1rSoUjdMmYbZqTyRAcLT1tufpQ2xidW4+XcS9Zzs+vrxwm9+ZdPDtJI6rF
B8ovnpQ9ozd02UcbCC4bmeVYf+E9fCmTnX2YUiES8odi46lwMizZsfXnUtIQ4OjV
6ZqN/rwzH81oTTx5GtaB+6zICdTtzAmGVsCSP2o4L3tGF5v8vJHIUHS5
-----END CERTIFICATE-----
